target datalayout = "e-m:e-p270:32:32-p271:32:32-p272:64:64-i64:64-i128:128-f80:128-n8:16:32:64-S128"
target triple = "x86_64-pc-linux-gnu"

%struct.RelationData = type { %struct.RelFileLocator, ptr, i32, i32, i8, i8, i8, i8, i8, i32, i32, i32, i32, ptr, ptr, i32, %struct.LockInfoData, ptr, ptr, ptr, ptr, ptr, i8, ptr, ptr, ptr, ptr, ptr, ptr, i32, ptr, i8, ptr, ptr, i32, i8, i32, ptr, i8, ptr, ptr, ptr, ptr, ptr, ptr, ptr, i32, ptr, ptr, ptr, ptr, ptr, ptr, ptr, ptr, ptr, ptr, ptr, ptr, ptr, ptr, ptr, ptr, ptr, ptr, ptr, i32, i8, ptr }
%struct.RelFileLocator = type { i32, i32, i32 }
%struct.LockInfoData = type { %struct.LockRelId }
%struct.LockRelId = type { i32, i32 }
%struct.FormData_pg_class = type { i32, %struct.nameData, i32, i32, i32, i32, i32, i32, i32, i32, float, i32, i32, i8, i8, i8, i8, i16, i16, i8, i8, i8, i8, i8, i8, i8, i8, i32, i32, i32 }
%struct.nameData = type { [64 x i8] }
%struct.IndexInfo = type { i32, i32, i32, [32 x i16], ptr, ptr, ptr, ptr, ptr, ptr, ptr, ptr, ptr, ptr, i8, i8, i8, i8, i8, i8, i8, i8, i8, i32, i32, ptr, ptr }
%struct.FormData_pg_index = type { i32, i32, i16, i16, i8, i8, i8, i8, i8, i8, i8, i8, i8, i8, i8, %struct.int2vector }
%struct.int2vector = type { i32, i32, i32, i32, i32, i32, [0 x i16] }
%struct.IndexAmRoutine = type { i32, i16, i16, i16, i8, i8, i8, i8, i8, i8, i8, i8, i8, i8, i8, i8, i8, i8, i8, i8, i8, i32, ptr, ptr, ptr, ptr, ptr, ptr, ptr, ptr, ptr, ptr, ptr, ptr, ptr, ptr, ptr, ptr, ptr, ptr, ptr, ptr, ptr, ptr, ptr, ptr, ptr, ptr }

@.str.1 = private unnamed_addr constant [8 x i8] c"index.c\00", align 1
@.str.30 = private unnamed_addr constant [33 x i8] c"invalid indnatts %d for index %u\00", align 1
@__func__.BuildIndexInfo = private unnamed_addr constant [15 x i8] c"BuildIndexInfo\00", align 1

; Function Attrs: nounwind uwtable
define dso_local ptr @BuildIndexInfo(ptr noundef %0) #0 {
  %2 = alloca ptr, align 8
  %3 = alloca ptr, align 8
  %4 = alloca ptr, align 8
  %5 = alloca i32, align 4
  %6 = alloca i32, align 4
  store ptr %0, ptr %2, align 8
  call void @llvm.lifetime.start.p0(i64 8, ptr %3) #8
  call void @llvm.lifetime.start.p0(i64 8, ptr %4) #8
  %7 = load ptr, ptr %2, align 8
  %8 = getelementptr inbounds nuw %struct.RelationData, ptr %7, i32 0, i32 48
  %9 = load ptr, ptr %8, align 8
  store ptr %9, ptr %4, align 8
  call void @llvm.lifetime.start.p0(i64 4, ptr %5) #8
  call void @llvm.lifetime.start.p0(i64 4, ptr %6) #8
  %10 = load ptr, ptr %4, align 8
  %11 = getelementptr inbounds nuw %struct.FormData_pg_index, ptr %10, i32 0, i32 2
  %12 = load i16, ptr %11, align 4
  %13 = sext i16 %12 to i32
  store i32 %13, ptr %6, align 4
  %14 = load i32, ptr %6, align 4
  %15 = icmp slt i32 %14, 1
  br i1 %15, label %19, label %16

16:                                               ; preds = %1
  %17 = load i32, ptr %6, align 4
  %18 = icmp sgt i32 %17, 32
  br i1 %18, label %19, label %34

19:                                               ; preds = %16, %1
  br label %20

20:                                               ; preds = %19
  br i1 true, label %21, label %23

21:                                               ; preds = %20
  %22 = call zeroext i1 @errstart_cold(i32 noundef 21, ptr noundef null) #9
  br i1 %22, label %25, label %31

23:                                               ; preds = %20
  %24 = call zeroext i1 @errstart(i32 noundef 21, ptr noundef null)
  br i1 %24, label %25, label %31

25:                                               ; preds = %23, %21
  %26 = load i32, ptr %6, align 4
  %27 = load ptr, ptr %2, align 8
  %28 = getelementptr inbounds nuw %struct.RelationData, ptr %27, i32 0, i32 15
  %29 = load i32, ptr %28, align 8
  %30 = call i32 (ptr, ...) @errmsg_internal(ptr noundef @.str.30, i32 noundef %26, i32 noundef %29)
  call void @errfinish(ptr noundef @.str.1, i32 noundef 2438, ptr noundef @__func__.BuildIndexInfo)
  br label %31

31:                                               ; preds = %25, %23, %21
  unreachable

32:                                               ; No predecessors!
  br label %33

33:                                               ; preds = %32
  br label %34

34:                                               ; preds = %33, %16
  %35 = load ptr, ptr %4, align 8
  %36 = getelementptr inbounds nuw %struct.FormData_pg_index, ptr %35, i32 0, i32 2
  %37 = load i16, ptr %36, align 4
  %38 = sext i16 %37 to i32
  %39 = load ptr, ptr %4, align 8
  %40 = getelementptr inbounds nuw %struct.FormData_pg_index, ptr %39, i32 0, i32 3
  %41 = load i16, ptr %40, align 2
  %42 = sext i16 %41 to i32
  %43 = load ptr, ptr %2, align 8
  %44 = getelementptr inbounds nuw %struct.RelationData, ptr %43, i32 0, i32 13
  %45 = load ptr, ptr %44, align 8
  %46 = getelementptr inbounds nuw %struct.FormData_pg_class, ptr %45, i32 0, i32 6
  %47 = load i32, ptr %46, align 4
  %48 = load ptr, ptr %2, align 8
  %49 = call ptr @RelationGetIndexExpressions(ptr noundef %48)
  %50 = load ptr, ptr %2, align 8
  %51 = call ptr @RelationGetIndexPredicate(ptr noundef %50)
  %52 = load ptr, ptr %4, align 8
  %53 = getelementptr inbounds nuw %struct.FormData_pg_index, ptr %52, i32 0, i32 4
  %54 = load i8, ptr %53, align 4, !range !4, !noundef !5
  %55 = trunc i8 %54 to i1
  %56 = load ptr, ptr %4, align 8
  %57 = getelementptr inbounds nuw %struct.FormData_pg_index, ptr %56, i32 0, i32 5
  %58 = load i8, ptr %57, align 1, !range !4, !noundef !5
  %59 = trunc i8 %58 to i1
  %60 = load ptr, ptr %4, align 8
  %61 = getelementptr inbounds nuw %struct.FormData_pg_index, ptr %60, i32 0, i32 12
  %62 = load i8, ptr %61, align 4, !range !4, !noundef !5
  %63 = trunc i8 %62 to i1
  %64 = load ptr, ptr %2, align 8
  %65 = getelementptr inbounds nuw %struct.RelationData, ptr %64, i32 0, i32 51
  %66 = load ptr, ptr %65, align 8
  %67 = getelementptr inbounds nuw %struct.IndexAmRoutine, ptr %66, i32 0, i32 19
  %68 = load i8, ptr %67, align 1, !range !4, !noundef !5
  %69 = trunc i8 %68 to i1
  %70 = load ptr, ptr %4, align 8
  %71 = getelementptr inbounds nuw %struct.FormData_pg_index, ptr %70, i32 0, i32 7
  %72 = load i8, ptr %71, align 1, !range !4, !noundef !5
  %73 = trunc i8 %72 to i1
  br i1 %73, label %74, label %79

74:                                               ; preds = %34
  %75 = load ptr, ptr %4, align 8
  %76 = getelementptr inbounds nuw %struct.FormData_pg_index, ptr %75, i32 0, i32 4
  %77 = load i8, ptr %76, align 4, !range !4, !noundef !5
  %78 = trunc i8 %77 to i1
  br label %79

79:                                               ; preds = %74, %34
  %80 = phi i1 [ false, %34 ], [ %78, %74 ]
  %81 = call ptr @makeIndexInfo(i32 noundef %38, i32 noundef %42, i32 noundef %47, ptr noundef %49, ptr noundef %51, i1 noundef zeroext %55, i1 noundef zeroext %59, i1 noundef zeroext %63, i1 noundef zeroext false, i1 noundef zeroext %69, i1 noundef zeroext %80)
  store ptr %81, ptr %3, align 8
  store i32 0, ptr %5, align 4
  br label %82

82:                                               ; preds = %99, %79
  %83 = load i32, ptr %5, align 4
  %84 = load i32, ptr %6, align 4
  %85 = icmp slt i32 %83, %84
  br i1 %85, label %86, label %102

86:                                               ; preds = %82
  %87 = load ptr, ptr %4, align 8
  %88 = getelementptr inbounds nuw %struct.FormData_pg_index, ptr %87, i32 0, i32 15
  %89 = getelementptr inbounds nuw %struct.int2vector, ptr %88, i32 0, i32 6
  %90 = load i32, ptr %5, align 4
  %91 = sext i32 %90 to i64
  %92 = getelementptr inbounds [0 x i16], ptr %89, i64 0, i64 %91
  %93 = load i16, ptr %92, align 2
  %94 = load ptr, ptr %3, align 8
  %95 = getelementptr inbounds nuw %struct.IndexInfo, ptr %94, i32 0, i32 3
  %96 = load i32, ptr %5, align 4
  %97 = sext i32 %96 to i64
  %98 = getelementptr inbounds [32 x i16], ptr %95, i64 0, i64 %97
  store i16 %93, ptr %98, align 2
  br label %99

99:                                               ; preds = %86
  %100 = load i32, ptr %5, align 4
  %101 = add i32 %100, 1
  store i32 %101, ptr %5, align 4
  br label %82, !llvm.loop !22

102:                                              ; preds = %82
  %103 = load ptr, ptr %4, align 8
  %104 = getelementptr inbounds nuw %struct.FormData_pg_index, ptr %103, i32 0, i32 7
  %105 = load i8, ptr %104, align 1, !range !4, !noundef !5
  %106 = trunc i8 %105 to i1
  br i1 %106, label %107, label %115

107:                                              ; preds = %102
  %108 = load ptr, ptr %2, align 8
  %109 = load ptr, ptr %3, align 8
  %110 = getelementptr inbounds nuw %struct.IndexInfo, ptr %109, i32 0, i32 8
  %111 = load ptr, ptr %3, align 8
  %112 = getelementptr inbounds nuw %struct.IndexInfo, ptr %111, i32 0, i32 9
  %113 = load ptr, ptr %3, align 8
  %114 = getelementptr inbounds nuw %struct.IndexInfo, ptr %113, i32 0, i32 10
  call void @RelationGetExclusionInfo(ptr noundef %108, ptr noundef %110, ptr noundef %112, ptr noundef %114)
  br label %115

115:                                              ; preds = %107, %102
  %116 = load ptr, ptr %3, align 8
  call void @llvm.lifetime.end.p0(i64 4, ptr %6) #8
  call void @llvm.lifetime.end.p0(i64 4, ptr %5) #8
  call void @llvm.lifetime.end.p0(i64 8, ptr %4) #8
  call void @llvm.lifetime.end.p0(i64 8, ptr %3) #8
  ret ptr %116
}