; Function Attrs: nounwind uwtable
define dso_local ptr @BuildIndexInfo(ptr noundef %0) local_unnamed_addr #0 {
  %2 = getelementptr inbounds nuw i8, ptr %0, i64 328
  %3 = load ptr, ptr %2, align 8
  %4 = getelementptr inbounds nuw i8, ptr %3, i64 8
  %5 = load i16, ptr %4, align 4
  %6 = sext i16 %5 to i32
  %7 = add i16 %5, -33
  %or.cond = icmp ult i16 %7, -32
  br i1 %or.cond, label %8, label %.lr.ph

8:                                                ; preds = %1
  %9 = tail call zeroext i1 @errstart_cold(i32 noundef 21, ptr noundef null) #12
  tail call void @llvm.assume(i1 %9)
  %10 = getelementptr inbounds nuw i8, ptr %0, i64 72
  %11 = load i32, ptr %10, align 8
  %12 = tail call i32 (ptr, ...) @errmsg_internal(ptr noundef nonnull @.str.30, i32 noundef %6, i32 noundef %11) #11
  tail call void @errfinish(ptr noundef nonnull @.str.1, i32 noundef 2438, ptr noundef nonnull @__func__.BuildIndexInfo) #11
  unreachable

.lr.ph:                                           ; preds = %1
  %13 = getelementptr inbounds nuw i8, ptr %3, i64 10
  %14 = load i16, ptr %13, align 2
  %15 = sext i16 %14 to i32
  %16 = getelementptr inbounds nuw i8, ptr %0, i64 56
  %17 = load ptr, ptr %16, align 8
  %18 = getelementptr inbounds nuw i8, ptr %17, i64 84
  %19 = load i32, ptr %18, align 4
  %20 = tail call ptr @RelationGetIndexExpressions(ptr noundef nonnull %0) #11
  %21 = tail call ptr @RelationGetIndexPredicate(ptr noundef nonnull %0) #11
  %22 = getelementptr inbounds nuw i8, ptr %3, i64 12
  %23 = load i8, ptr %22, align 4, !range !4, !noundef !5
  %24 = trunc nuw i8 %23 to i1
  %25 = getelementptr inbounds nuw i8, ptr %3, i64 13
  %26 = load i8, ptr %25, align 1, !range !4, !noundef !5
  %27 = trunc nuw i8 %26 to i1
  %28 = getelementptr inbounds nuw i8, ptr %3, i64 20
  %29 = load i8, ptr %28, align 4, !range !4, !noundef !5
  %30 = trunc nuw i8 %29 to i1
  %31 = getelementptr inbounds nuw i8, ptr %0, i64 352
  %32 = load ptr, ptr %31, align 8
  %33 = getelementptr inbounds nuw i8, ptr %32, i64 25
  %34 = load i8, ptr %33, align 1, !range !4, !noundef !5
  %35 = trunc nuw i8 %34 to i1
  %36 = getelementptr inbounds nuw i8, ptr %3, i64 15
  %37 = load i8, ptr %36, align 1, !range !4, !noundef !5
  %spec.select31 = and i8 %37, %23
  %spec.select = trunc nuw i8 %spec.select31 to i1
  %38 = tail call ptr @makeIndexInfo(i32 noundef %6, i32 noundef %15, i32 noundef %19, ptr noundef %20, ptr noundef %21, i1 noundef zeroext %24, i1 noundef zeroext %27, i1 noundef zeroext %30, i1 noundef zeroext false, i1 noundef zeroext %35, i1 noundef zeroext %spec.select) #11
  %39 = getelementptr inbounds nuw i8, ptr %3, i64 48
  %40 = getelementptr inbounds nuw i8, ptr %38, i64 12
  %wide.trip.count = zext nneg i32 %6 to i64
  br label %41

41:                                               ; preds = %.lr.ph, %41
  %indvars.iv = phi i64 [ 0, %.lr.ph ], [ %indvars.iv.next, %41 ]
  %42 = getelementptr inbounds nuw [0 x i16], ptr %39, i64 0, i64 %indvars.iv
  %43 = load i16, ptr %42, align 2
  %44 = getelementptr inbounds nuw [32 x i16], ptr %40, i64 0, i64 %indvars.iv
  store i16 %43, ptr %44, align 2
  %indvars.iv.next = add nuw nsw i64 %indvars.iv, 1
  %exitcond.not = icmp eq i64 %indvars.iv.next, %wide.trip.count
  br i1 %exitcond.not, label %._crit_edge, label %41, !llvm.loop !25

._crit_edge:                                      ; preds = %41
  %45 = load i8, ptr %36, align 1, !range !4, !noundef !5
  %46 = trunc nuw i8 %45 to i1
  br i1 %46, label %47, label %51

47:                                               ; preds = %._crit_edge
  %48 = getelementptr inbounds nuw i8, ptr %38, i64 112
  %49 = getelementptr inbounds nuw i8, ptr %38, i64 120
  %50 = getelementptr inbounds nuw i8, ptr %38, i64 128
  tail call void @RelationGetExclusionInfo(ptr noundef nonnull %0, ptr noundef nonnull %48, ptr noundef nonnull %49, ptr noundef nonnull %50) #11
  br label %51

51:                                               ; preds = %47, %._crit_edge
  ret ptr %38
}